; Listing generated by Microsoft (R) Optimizing Compiler Version 15.00.30729.01 

	TITLE	c:\Users\admin\Desktop\binaries\23_switch_case_sw.c
	.686P
	.XMM
	include listing.inc
	.model	flat

INCLUDELIB MSVCRT
INCLUDELIB OLDNAMES

_DATA	SEGMENT
$SG2522	DB	'zero', 0aH, 00H
	ORG $+2
$SG2524	DB	'one', 0aH, 00H
	ORG $+3
$SG2526	DB	'two', 0aH, 00H
	ORG $+3
$SG2528	DB	'something unknown', 0aH, 00H
_DATA	ENDS
PUBLIC	_f
EXTRN	__imp__printf:PROC
; Function compile flags: /Ogtpy
; File c:\users\admin\desktop\binaries\23_switch_case_sw.c
_TEXT	SEGMENT
_a$ = 8							; size = 4
_f	PROC

; 7    : 	switch(a)

  00000	8b 44 24 04	 mov	 eax, DWORD PTR _a$[esp-4]
  00004	83 e8 00	 sub	 eax, 0
  00007	74 34		 je	 SHORT $LN4@f
  00009	83 e8 01	 sub	 eax, 1
  0000c	74 21		 je	 SHORT $LN3@f
  0000e	83 e8 01	 sub	 eax, 1
  00011	74 0e		 je	 SHORT $LN2@f

; 14   : 			break;
; 15   : 		default: printf("something unknown\n");

  00013	c7 44 24 04 00
	00 00 00	 mov	 DWORD PTR _a$[esp-4], OFFSET $SG2528
  0001b	ff 25 00 00 00
	00		 jmp	 DWORD PTR __imp__printf
$LN2@f:

; 12   : 			break;
; 13   : 		case 2: printf("two\n");

  00021	c7 44 24 04 00
	00 00 00	 mov	 DWORD PTR _a$[esp-4], OFFSET $SG2526
  00029	ff 25 00 00 00
	00		 jmp	 DWORD PTR __imp__printf
$LN3@f:

; 10   : 			break;
; 11   : 		case 1: printf("one\n");

  0002f	c7 44 24 04 00
	00 00 00	 mov	 DWORD PTR _a$[esp-4], OFFSET $SG2524
  00037	ff 25 00 00 00
	00		 jmp	 DWORD PTR __imp__printf
$LN4@f:

; 8    : 	{
; 9    : 		case 0: printf("zero\n");

  0003d	c7 44 24 04 00
	00 00 00	 mov	 DWORD PTR _a$[esp-4], OFFSET $SG2522
  00045	ff 25 00 00 00
	00		 jmp	 DWORD PTR __imp__printf
_f	ENDP
_TEXT	ENDS
PUBLIC	_main
; Function compile flags: /Ogtpy
_TEXT	SEGMENT
_main	PROC

; 21   : 	f(2);

  00050	68 00 00 00 00	 push	 OFFSET $SG2526
  00055	ff 15 00 00 00
	00		 call	 DWORD PTR __imp__printf
  0005b	83 c4 04	 add	 esp, 4

; 22   : };

  0005e	33 c0		 xor	 eax, eax
  00060	c3		 ret	 0
_main	ENDP
_TEXT	ENDS
END
